; Function Attrs: mustprogress uwtable
define hidden void @_ZN3euf13th_euf_solver3popEj(ptr noundef nonnull align 8 dereferenceable(108) %this, i32 noundef %n) unnamed_addr #3 align 2 {
entry:
  %m_num_scopes = getelementptr inbounds i8, ptr %this, i64 104
  %0 = load i32, ptr %m_num_scopes, align 8
  %.sroa.speculated = tail call i32 @llvm.umin.i32(i32 %0, i32 %n)
  %sub = sub i32 %0, %.sroa.speculated
  store i32 %sub, ptr %m_num_scopes, align 8
  %cmp.not.not = icmp ult i32 %0, %n
  br i1 %cmp.not.not, label %if.then, label %if.end

if.then:                                          ; preds = %entry
  %sub3 = sub i32 %n, %.sroa.speculated
  %vtable = load ptr, ptr %this, align 8
  %vfn = getelementptr inbounds i8, ptr %vtable, i64 504
  %1 = load ptr, ptr %vfn, align 8
  tail call void %1(ptr noundef nonnull align 8 dereferenceable(108) %this, i32 noundef %sub3)
  br label %if.end

if.end:                                           ; preds = %if.then, %entry
  ret void
}